; Function Attrs: null_pointer_is_valid sspstrong uwtable
define hidden void @isis_dissect_hostname_clv(ptr noundef %0, ptr noundef %1, i32 noundef %2, i32 noundef %3, i32 noundef %4) local_unnamed_addr #0 {
  %6 = tail call ptr @proto_tree_add_item(ptr noundef %1, i32 noundef %4, ptr noundef %0, i32 noundef %2, i32 noundef %3, i32 noundef 0)
  %7 = icmp eq i32 %3, 0
  br i1 %7, label %8, label %9

8:                                                ; preds = %5
  tail call void (ptr, ptr, ...) @proto_item_append_text(ptr noundef %6, ptr noundef nonnull @.str.12)
  br label %9

9:                                                ; preds = %8, %5
  ret void
}